; Function Attrs: mustprogress uwtable
define dso_local void @_ZN7AstNode7setOp2pEPS_(ptr noundef nonnull align 8 dereferenceable(152) %0, ptr noundef %1) local_unnamed_addr #4 align 2 {
  %.not = icmp eq ptr %1, null
  br i1 %.not, label %3, label %7

3:                                                ; preds = %2
  %4 = tail call noundef nonnull align 8 dereferenceable(112) ptr @_ZN7V3Error19v3errorPrepFileLineB5cxx11E11V3ErrorCodePKcib(i8 4, ptr noundef nonnull @.str.557, i32 noundef 430, i1 noundef zeroext false)
  %5 = tail call noundef nonnull align 8 dereferenceable(112) ptr @_ZN7V3Error10v3errorStrB5cxx11Ev()
  %6 = tail call noundef nonnull align 8 dereferenceable(8) ptr @_ZStlsISt11char_traitsIcEERSt13basic_ostreamIcT_ES5_PKc(ptr noundef nonnull align 8 dereferenceable(8) %5, ptr noundef nonnull @.str.588)
  tail call void @_ZNK7AstNode15v3errorEndFatalERNSt7__cxx1119basic_ostringstreamIcSt11char_traitsIcESaIcEEE(ptr noundef nonnull align 8 dereferenceable(152) %0, ptr noundef nonnull align 8 dereferenceable(112) %6) #25
  unreachable

7:                                                ; preds = %2
  %8 = getelementptr inbounds i8, ptr %0, i64 32
  store ptr %1, ptr %8, align 8
  %9 = load i64, ptr @_ZN7AstNode12s_editCntGblE, align 8
  %10 = add i64 %9, 1
  store i64 %10, ptr @_ZN7AstNode12s_editCntGblE, align 8
  %11 = getelementptr inbounds i8, ptr %1, i64 16
  store ptr %0, ptr %11, align 8
  ret void
}